; Function Attrs: mustprogress nounwind uwtable
define hidden { ptr, ptr } @_ZNK6hermes7PhiInst8getEntryEj(ptr noundef nonnull align 8 dereferenceable(132) %this, i32 noundef %i) local_unnamed_addr #0 align 2 {
entry:
  %mul.i = shl i32 %i, 1
  %call2 = tail call noundef ptr @_ZNK6hermes11Instruction10getOperandEj(ptr noundef nonnull align 8 dereferenceable(132) %this, i32 noundef %mul.i) #15
  %add = or disjoint i32 %mul.i, 1
  %call5 = tail call noundef ptr @_ZNK6hermes11Instruction10getOperandEj(ptr noundef nonnull align 8 dereferenceable(132) %this, i32 noundef %add) #15
  %0 = icmp eq ptr %call5, null
  %sub.ptr.i.i = getelementptr inbounds i8, ptr %call5, i64 -16
  %1 = select i1 %0, ptr null, ptr %sub.ptr.i.i
  %.fca.0.insert.i = insertvalue { ptr, ptr } poison, ptr %call2, 0
  %.fca.1.insert.i = insertvalue { ptr, ptr } %.fca.0.insert.i, ptr %1, 1
  ret { ptr, ptr } %.fca.1.insert.i
}